target datalayout = "e-m:e-p270:32:32-p271:32:32-p272:64:64-i64:64-i128:128-f80:128-n8:16:32:64-S128"
target triple = "x86_64-pc-linux-gnu"

%"struct.boost::atomics::detail::lock_pool::(anonymous namespace)::lock_state" = type { i32, %"struct.boost::atomics::detail::lock_pool::(anonymous namespace)::wait_state_list" }
%"struct.boost::atomics::detail::lock_pool::(anonymous namespace)::wait_state_list" = type { ptr, i8 }
%"struct.boost::atomics::detail::lock_pool::(anonymous namespace)::wait_state_base" = type { i64, i64 }
%"struct.boost::atomics::detail::lock_pool::(anonymous namespace)::wait_state_list::header" = type { i64, i64 }

; Function Attrs: mustprogress nounwind uwtable
define internal noundef ptr @_ZN5boost7atomics6detail9lock_pool12_GLOBAL__N_115wait_state_list15get_wait_statesEPPVKvm(ptr noundef %0, i64 noundef %1) #0 align 2 {
  %3 = alloca ptr, align 8
  %4 = alloca i64, align 8
  store ptr %0, ptr %3, align 8, !tbaa !3
  store i64 %1, ptr %4, align 8, !tbaa !7
  %5 = load ptr, ptr %3, align 8, !tbaa !3
  %6 = load i64, ptr %4, align 8, !tbaa !7
  %7 = getelementptr inbounds nuw ptr, ptr %5, i64 %6
  ret ptr %7
}

; Function Attrs: mustprogress nounwind uwtable
define internal noundef ptr @_ZN5boost7atomics6detail9lock_pool12_GLOBAL__N_115wait_state_list15get_wait_statesEPNS4_6headerE(ptr noundef %0) #0 align 2 {
  %2 = alloca ptr, align 8
  store ptr %0, ptr %2, align 8, !tbaa !3
  %3 = load ptr, ptr %2, align 8, !tbaa !3
  %4 = call noundef ptr @_ZN5boost7atomics6detail9lock_pool12_GLOBAL__N_115wait_state_list19get_atomic_pointersEPNS4_6headerE(ptr noundef %3) #14
  %5 = load ptr, ptr %2, align 8, !tbaa !3
  %6 = getelementptr inbounds nuw %"struct.boost::atomics::detail::lock_pool::(anonymous namespace)::wait_state_list::header", ptr %5, i32 0, i32 1
  %7 = load i64, ptr %6, align 8, !tbaa !23
  %8 = call noundef ptr @_ZN5boost7atomics6detail9lock_pool12_GLOBAL__N_115wait_state_list15get_wait_statesEPPVKvm(ptr noundef %4, i64 noundef %7) #14
  ret ptr %8
}

; Function Attrs: mustprogress nounwind uwtable
define internal noundef ptr @_ZN5boost7atomics6detail9lock_pool12_GLOBAL__N_115wait_state_list19get_atomic_pointersEPNS4_6headerE(ptr noundef %0) #0 align 2 {
  %2 = alloca ptr, align 8
  store ptr %0, ptr %2, align 8, !tbaa !3
  %3 = load ptr, ptr %2, align 8, !tbaa !3
  %4 = getelementptr inbounds nuw i8, ptr %3, i64 16
  ret ptr %4
}

; Function Attrs: mustprogress nounwind uwtable
define internal noundef ptr @_ZNK5boost7atomics6detail9lock_pool12_GLOBAL__N_115wait_state_list15get_wait_statesEv(ptr noundef nonnull align 8 dereferenceable(16) %0) #0 align 2 {
  %2 = alloca ptr, align 8
  store ptr %0, ptr %2, align 8, !tbaa !3
  %3 = load ptr, ptr %2, align 8
  %4 = getelementptr inbounds nuw %"struct.boost::atomics::detail::lock_pool::(anonymous namespace)::wait_state_list", ptr %3, i32 0, i32 0
  %5 = load ptr, ptr %4, align 8, !tbaa !18
  %6 = call noundef ptr @_ZN5boost7atomics6detail9lock_pool12_GLOBAL__N_115wait_state_list15get_wait_statesEPNS4_6headerE(ptr noundef %5) #14
  ret ptr %6
}

; Function Attrs: mustprogress nounwind uwtable
define internal noundef ptr @_ZNK5boost7atomics6detail9lock_pool12_GLOBAL__N_115wait_state_list19get_atomic_pointersEv(ptr noundef nonnull align 8 dereferenceable(16) %0) #0 align 2 {
  %2 = alloca ptr, align 8
  store ptr %0, ptr %2, align 8, !tbaa !3
  %3 = load ptr, ptr %2, align 8
  %4 = getelementptr inbounds nuw %"struct.boost::atomics::detail::lock_pool::(anonymous namespace)::wait_state_list", ptr %3, i32 0, i32 0
  %5 = load ptr, ptr %4, align 8, !tbaa !18
  %6 = call noundef ptr @_ZN5boost7atomics6detail9lock_pool12_GLOBAL__N_115wait_state_list19get_atomic_pointersEPNS4_6headerE(ptr noundef %5) #14
  ret ptr %6
}

; Function Attrs: inlinehint mustprogress nounwind uwtable
define internal void @_ZN5boost7atomics6detail9lock_pool12_GLOBAL__N_115wait_state_list5eraseEPNS3_10wait_stateE(ptr noundef nonnull align 8 dereferenceable(16) %0, ptr noundef %1) #3 align 2 {
  %3 = alloca ptr, align 8
  %4 = alloca ptr, align 8
  %5 = alloca ptr, align 8
  %6 = alloca ptr, align 8
  %7 = alloca i64, align 8
  %8 = alloca i64, align 8
  %9 = alloca ptr, align 8
  store ptr %0, ptr %3, align 8, !tbaa !3
  store ptr %1, ptr %4, align 8, !tbaa !3
  %10 = load ptr, ptr %3, align 8
  call void @llvm.lifetime.start.p0(i64 8, ptr %5) #14
  %11 = call noundef ptr @_ZNK5boost7atomics6detail9lock_pool12_GLOBAL__N_115wait_state_list19get_atomic_pointersEv(ptr noundef nonnull align 8 dereferenceable(16) %10) #14
  store ptr %11, ptr %5, align 8, !tbaa !3
  call void @llvm.lifetime.start.p0(i64 8, ptr %6) #14
  %12 = call noundef ptr @_ZNK5boost7atomics6detail9lock_pool12_GLOBAL__N_115wait_state_list15get_wait_statesEv(ptr noundef nonnull align 8 dereferenceable(16) %10) #14
  store ptr %12, ptr %6, align 8, !tbaa !3
  call void @llvm.lifetime.start.p0(i64 8, ptr %7) #14
  %13 = load ptr, ptr %4, align 8, !tbaa !3
  %14 = getelementptr inbounds nuw %"struct.boost::atomics::detail::lock_pool::(anonymous namespace)::wait_state_base", ptr %13, i32 0, i32 1
  %15 = load i64, ptr %14, align 8, !tbaa !24
  store i64 %15, ptr %7, align 8, !tbaa !7
  call void @llvm.lifetime.start.p0(i64 8, ptr %8) #14
  %16 = getelementptr inbounds nuw %"struct.boost::atomics::detail::lock_pool::(anonymous namespace)::wait_state_list", ptr %10, i32 0, i32 0
  %17 = load ptr, ptr %16, align 8, !tbaa !18
  %18 = getelementptr inbounds nuw %"struct.boost::atomics::detail::lock_pool::(anonymous namespace)::wait_state_list::header", ptr %17, i32 0, i32 0
  %19 = load i64, ptr %18, align 8, !tbaa !21
  %20 = sub i64 %19, 1
  store i64 %20, ptr %8, align 8, !tbaa !7
  %21 = load i64, ptr %7, align 8, !tbaa !7
  %22 = load i64, ptr %8, align 8, !tbaa !7
  %23 = icmp ne i64 %21, %22
  br i1 %23, label %24, label %53

24:                                               ; preds = %2
  %25 = load ptr, ptr %5, align 8, !tbaa !3
  %26 = load i64, ptr %8, align 8, !tbaa !7
  %27 = getelementptr inbounds nuw ptr, ptr %25, i64 %26
  %28 = load ptr, ptr %27, align 8, !tbaa !3
  %29 = load ptr, ptr %5, align 8, !tbaa !3
  %30 = load i64, ptr %7, align 8, !tbaa !7
  %31 = getelementptr inbounds nuw ptr, ptr %29, i64 %30
  store ptr %28, ptr %31, align 8, !tbaa !3
  %32 = load ptr, ptr %5, align 8, !tbaa !3
  %33 = load i64, ptr %8, align 8, !tbaa !7
  %34 = getelementptr inbounds nuw ptr, ptr %32, i64 %33
  store ptr null, ptr %34, align 8, !tbaa !3
  call void @llvm.lifetime.start.p0(i64 8, ptr %9) #14
  %35 = load ptr, ptr %6, align 8, !tbaa !3
  %36 = load i64, ptr %8, align 8, !tbaa !7
  %37 = getelementptr inbounds nuw ptr, ptr %35, i64 %36
  %38 = load ptr, ptr %37, align 8, !tbaa !3
  store ptr %38, ptr %9, align 8, !tbaa !3
  %39 = load ptr, ptr %9, align 8, !tbaa !3
  %40 = load ptr, ptr %6, align 8, !tbaa !3
  %41 = load i64, ptr %7, align 8, !tbaa !7
  %42 = getelementptr inbounds nuw ptr, ptr %40, i64 %41
  store ptr %39, ptr %42, align 8, !tbaa !3
  %43 = load ptr, ptr %4, align 8, !tbaa !3
  %44 = load ptr, ptr %6, align 8, !tbaa !3
  %45 = load i64, ptr %8, align 8, !tbaa !7
  %46 = getelementptr inbounds nuw ptr, ptr %44, i64 %45
  store ptr %43, ptr %46, align 8, !tbaa !3
  %47 = load i64, ptr %7, align 8, !tbaa !7
  %48 = load ptr, ptr %9, align 8, !tbaa !3
  %49 = getelementptr inbounds nuw %"struct.boost::atomics::detail::lock_pool::(anonymous namespace)::wait_state_base", ptr %48, i32 0, i32 1
  store i64 %47, ptr %49, align 8, !tbaa !24
  %50 = load i64, ptr %8, align 8, !tbaa !7
  %51 = load ptr, ptr %4, align 8, !tbaa !3
  %52 = getelementptr inbounds nuw %"struct.boost::atomics::detail::lock_pool::(anonymous namespace)::wait_state_base", ptr %51, i32 0, i32 1
  store i64 %50, ptr %52, align 8, !tbaa !24
  call void @llvm.lifetime.end.p0(i64 8, ptr %9) #14
  br label %57

53:                                               ; preds = %2
  %54 = load ptr, ptr %5, align 8, !tbaa !3
  %55 = load i64, ptr %7, align 8, !tbaa !7
  %56 = getelementptr inbounds nuw ptr, ptr %54, i64 %55
  store ptr null, ptr %56, align 8, !tbaa !3
  br label %57

57:                                               ; preds = %53, %24
  %58 = getelementptr inbounds nuw %"struct.boost::atomics::detail::lock_pool::(anonymous namespace)::wait_state_list", ptr %10, i32 0, i32 0
  %59 = load ptr, ptr %58, align 8, !tbaa !18
  %60 = getelementptr inbounds nuw %"struct.boost::atomics::detail::lock_pool::(anonymous namespace)::wait_state_list::header", ptr %59, i32 0, i32 0
  %61 = load i64, ptr %60, align 8, !tbaa !21
  %62 = add i64 %61, -1
  store i64 %62, ptr %60, align 8, !tbaa !21
  %63 = getelementptr inbounds nuw %"struct.boost::atomics::detail::lock_pool::(anonymous namespace)::wait_state_list", ptr %10, i32 0, i32 1
  %64 = load i8, ptr %63, align 8, !tbaa !25, !range !26, !noundef !27
  %65 = trunc i8 %64 to i1
  %66 = zext i1 %65 to i64
  %67 = call i64 @llvm.expect.i64(i64 %66, i64 0)
  %68 = icmp ne i64 %67, 0
  br i1 %68, label %69, label %70

69:                                               ; preds = %57
  call void @_ZN5boost7atomics6detail9lock_pool12_GLOBAL__N_115wait_state_list10free_spareEv(ptr noundef nonnull align 8 dereferenceable(16) %10) #14
  br label %70

70:                                               ; preds = %69, %57
  call void @llvm.lifetime.end.p0(i64 8, ptr %8) #14
  call void @llvm.lifetime.end.p0(i64 8, ptr %7) #14
  call void @llvm.lifetime.end.p0(i64 8, ptr %6) #14
  call void @llvm.lifetime.end.p0(i64 8, ptr %5) #14
  ret void
}

; Function Attrs: mustprogress nounwind uwtable
define void @_ZN5boost7atomics6detail9lock_pool15free_wait_stateEPvS3_(ptr noundef %0, ptr noundef %1) #0 {
  %3 = alloca ptr, align 8
  %4 = alloca ptr, align 8
  %5 = alloca ptr, align 8
  %6 = alloca ptr, align 8
  store ptr %0, ptr %3, align 8, !tbaa !3
  store ptr %1, ptr %4, align 8, !tbaa !3
  call void @llvm.lifetime.start.p0(i64 8, ptr %5) #14
  %7 = load ptr, ptr %4, align 8, !tbaa !3
  store ptr %7, ptr %5, align 8, !tbaa !3
  %8 = load ptr, ptr %5, align 8, !tbaa !3
  %9 = icmp ne ptr %8, null
  %10 = zext i1 %9 to i64
  %11 = call i64 @llvm.expect.i64(i64 %10, i64 1)
  %12 = icmp ne i64 %11, 0
  br i1 %12, label %13, label %25

13:                                               ; preds = %2
  %14 = load ptr, ptr %5, align 8, !tbaa !3
  %15 = getelementptr inbounds nuw %"struct.boost::atomics::detail::lock_pool::(anonymous namespace)::wait_state_base", ptr %14, i32 0, i32 0
  %16 = load i64, ptr %15, align 8, !tbaa !16
  %17 = add i64 %16, -1
  store i64 %17, ptr %15, align 8, !tbaa !16
  %18 = icmp eq i64 %17, 0
  br i1 %18, label %19, label %24

19:                                               ; preds = %13
  call void @llvm.lifetime.start.p0(i64 8, ptr %6) #14
  %20 = load ptr, ptr %3, align 8, !tbaa !3
  store ptr %20, ptr %6, align 8, !tbaa !3
  %21 = load ptr, ptr %6, align 8, !tbaa !3
  %22 = getelementptr inbounds nuw %"struct.boost::atomics::detail::lock_pool::(anonymous namespace)::lock_state", ptr %21, i32 0, i32 1
  %23 = load ptr, ptr %5, align 8, !tbaa !3
  call void @_ZN5boost7atomics6detail9lock_pool12_GLOBAL__N_115wait_state_list5eraseEPNS3_10wait_stateE(ptr noundef nonnull align 8 dereferenceable(16) %22, ptr noundef %23) #14
  call void @llvm.lifetime.end.p0(i64 8, ptr %6) #14
  br label %24

24:                                               ; preds = %19, %13
  br label %25

25:                                               ; preds = %24, %2
  call void @llvm.lifetime.end.p0(i64 8, ptr %5) #14
  ret void
}