; Function Attrs: mustprogress nounwind uwtable
define void @_ZN5boost7atomics6detail9lock_pool15free_wait_stateEPvS3_(ptr nocapture noundef %0, ptr noundef %1) local_unnamed_addr #2 {
  %.not = icmp eq ptr %1, null
  br i1 %.not, label %_ZN5boost7atomics6detail9lock_pool12_GLOBAL__N_115wait_state_list5eraseEPNS3_10wait_stateE.exit, label %3, !prof !16

3:                                                ; preds = %2
  %4 = load i64, ptr %1, align 8, !tbaa !22
  %5 = add i64 %4, -1
  store i64 %5, ptr %1, align 8, !tbaa !22
  %6 = icmp eq i64 %5, 0
  br i1 %6, label %7, label %_ZN5boost7atomics6detail9lock_pool12_GLOBAL__N_115wait_state_list5eraseEPNS3_10wait_stateE.exit

7:                                                ; preds = %3
  %8 = getelementptr inbounds nuw i8, ptr %0, i64 8
  %.val24.i = load ptr, ptr %8, align 8, !tbaa !13
  %9 = getelementptr inbounds nuw i8, ptr %.val24.i, i64 16
  %10 = getelementptr inbounds nuw i8, ptr %1, i64 8
  %11 = load i64, ptr %10, align 8, !tbaa !24
  %12 = load i64, ptr %.val24.i, align 8, !tbaa !17
  %13 = add i64 %12, -1
  %.not.i = icmp eq i64 %11, %13
  br i1 %.not.i, label %25, label %14

14:                                               ; preds = %7
  %15 = getelementptr inbounds nuw i8, ptr %.val24.i, i64 8
  %16 = load i64, ptr %15, align 8, !tbaa !20
  %17 = getelementptr inbounds nuw ptr, ptr %9, i64 %16
  %18 = getelementptr inbounds nuw ptr, ptr %9, i64 %13
  %19 = load ptr, ptr %18, align 8, !tbaa !3
  %20 = getelementptr inbounds nuw ptr, ptr %9, i64 %11
  store ptr %19, ptr %20, align 8, !tbaa !3
  store ptr null, ptr %18, align 8, !tbaa !3
  %21 = getelementptr inbounds nuw ptr, ptr %17, i64 %13
  %22 = load ptr, ptr %21, align 8, !tbaa !3
  %23 = getelementptr inbounds nuw ptr, ptr %17, i64 %11
  store ptr %22, ptr %23, align 8, !tbaa !3
  store ptr %1, ptr %21, align 8, !tbaa !3
  %24 = getelementptr inbounds nuw i8, ptr %22, i64 8
  store i64 %11, ptr %24, align 8, !tbaa !24
  store i64 %13, ptr %10, align 8, !tbaa !24
  br label %27

25:                                               ; preds = %7
  %26 = getelementptr inbounds nuw ptr, ptr %9, i64 %11
  store ptr null, ptr %26, align 8, !tbaa !3
  br label %27

27:                                               ; preds = %25, %14
  %28 = load ptr, ptr %8, align 8, !tbaa !13
  %29 = load i64, ptr %28, align 8, !tbaa !17
  %30 = add i64 %29, -1
  store i64 %30, ptr %28, align 8, !tbaa !17
  %31 = getelementptr inbounds nuw i8, ptr %0, i64 16
  %32 = load i8, ptr %31, align 8, !tbaa !28, !range !29, !noundef !30
  %33 = trunc nuw i8 %32 to i1
  br i1 %33, label %34, label %_ZN5boost7atomics6detail9lock_pool12_GLOBAL__N_115wait_state_list5eraseEPNS3_10wait_stateE.exit, !prof !16

34:                                               ; preds = %27
  tail call fastcc void @_ZN5boost7atomics6detail9lock_pool12_GLOBAL__N_115wait_state_list10free_spareEv(ptr noundef nonnull align 8 dereferenceable(16) %8) #17
  br label %_ZN5boost7atomics6detail9lock_pool12_GLOBAL__N_115wait_state_list5eraseEPNS3_10wait_stateE.exit

_ZN5boost7atomics6detail9lock_pool12_GLOBAL__N_115wait_state_list5eraseEPNS3_10wait_stateE.exit: ; preds = %34, %27, %3, %2
  ret void
}